; Function Attrs: mustprogress nounwind uwtable
define dso_local void @_ZN18btSimpleBroadphaseD0Ev(ptr noundef nonnull align 8 dereferenceable(64) %this) unnamed_addr #3 align 2 personality ptr @__gxx_personality_v0 {
entry:
  store ptr getelementptr inbounds ({ [16 x ptr] }, ptr @_ZTV18btSimpleBroadphase, i64 0, i32 0, i64 2), ptr %this, align 8
  %m_pHandlesRawPtr.i = getelementptr inbounds i8, ptr %this, i64 32
  %0 = load ptr, ptr %m_pHandlesRawPtr.i, align 8
  invoke void @_Z21btAlignedFreeInternalPv(ptr noundef %0)
          to label %invoke.cont.i unwind label %terminate.lpad.i

invoke.cont.i:                                    ; preds = %entry
  %m_ownsPairCache.i = getelementptr inbounds i8, ptr %this, i64 56
  %1 = load i8, ptr %m_ownsPairCache.i, align 8
  %2 = and i8 %1, 1
  %tobool.not.i = icmp eq i8 %2, 0
  br i1 %tobool.not.i, label %_ZN18btSimpleBroadphaseD2Ev.exit, label %if.then.i

if.then.i:                                        ; preds = %invoke.cont.i
  %m_pairCache.i = getelementptr inbounds i8, ptr %this, i64 48
  %3 = load ptr, ptr %m_pairCache.i, align 8
  %vtable.i = load ptr, ptr %3, align 8
  %4 = load ptr, ptr %vtable.i, align 8
  tail call void %4(ptr noundef nonnull align 8 dereferenceable(8) %3) #12
  %5 = load ptr, ptr %m_pairCache.i, align 8
  invoke void @_Z21btAlignedFreeInternalPv(ptr noundef %5)
          to label %_ZN18btSimpleBroadphaseD2Ev.exit unwind label %terminate.lpad.i

terminate.lpad.i:                                 ; preds = %if.then.i, %entry
  %6 = landingpad { ptr, i32 }
          catch ptr null
  %7 = extractvalue { ptr, i32 } %6, 0
  tail call void @__clang_call_terminate(ptr %7) #13
  unreachable

_ZN18btSimpleBroadphaseD2Ev.exit:                 ; preds = %invoke.cont.i, %if.then.i
  tail call void @_ZdlPv(ptr noundef nonnull %this) #14
  ret void
}